Certificate:
    Data:
        Version: 1 (0x0)
        Serial Number: 4661 (0x1235)
        Signature Algorithm: sha256WithRSAEncryption
        Issuer: CN=god
        Validity
            Not Before: Dec 20 15:43:29 2025 GMT
            Not After : Dec 18 15:43:29 2035 GMT
        Subject: CN=dsa2
        Subject Public Key Info:
            Public Key Algorithm: rsaEncryption
                RSA Public-Key: (2048 bit)
                Modulus:
                    00:e8:3b:c0:3d:cf:e2:2c:6b:7a:5b:07:7e:45:25:
                    f0:6b:95:6f:46:f0:25:3f:da:49:a2:27:50:1b:6f:
                    ef:08:e8:a5:fb:81:22:23:8f:e1:92:ab:80:85:7e:
                    d4:f9:52:11:a1:ef:b0:a8:9a:14:03:e9:54:75:f8:
                    e8:3e:69:9e:18:14:d5:fb:59:6c:d2:d1:a0:6f:21:
                    ac:17:5c:a9:86:67:87:91:11:e7:c1:b5:f2:fd:af:
                    5b:d6:f5:8b:b0:3d:b9:0e:96:ca:f6:56:7f:be:2b:
                    d1:d6:87:1a:30:bb:df:d0:e2:06:49:60:1d:62:ee:
                    e1:73:62:90:44:dc:f6:69:7c:13:57:76:d1:a6:9a:
                    56:5e:83:41:bb:8c:02:da:3e:62:9b:86:e1:8e:38:
                    26:07:46:3d:c5:b8:0c:a1:5a:29:ad:eb:77:33:3b:
                    c0:62:00:e1:01:e6:66:fd:b5:e9:35:e8:fa:46:15:
                    20:20:32:45:de:c3:fd:94:94:4c:46:00:39:45:80:
                    00:60:d3:ab:da:d6:c3:6b:5d:09:19:6e:bb:60:79:
                    3d:14:29:e5:94:9e:93:99:f5:25:76:0e:89:86:63:
                    91:95:1e:7b:33:8e:82:43:3f:b5:37:45:c1:a6:23:
                    2a:7a:ba:0a:b7:10:a2:1c:c1:12:33:b2:ea:f5:91:
                    1e:9b
                Exponent: 65537 (0x10001)
    Signature Algorithm: sha256WithRSAEncryption
         17:f3:3b:1b:3d:11:d9:9b:74:79:e6:f5:29:24:54:41:f0:d6:
         dc:2c:b6:93:b2:6e:23:7d:8c:df:c6:dd:d4:39:c5:38:d3:6d:
         5f:9e:09:94:97:a4:d3:68:8f:5e:b7:12:40:a6:f0:a3:a2:d4:
         d8:51:e1:cd:2f:12:4e:90:da:cb:08:e9:60:88:2d:19:12:5e:
         d1:68:bd:a6:3f:8d:b2:2c:eb:b8:86:79:86:a0:5d:4b:cc:41:
         ac:6c:47:a1:e1:95:db:ea:bb:df:1e:23:77:e1:f7:c6:8f:a9:
         22:9d:4e:db:da:43:12:b5:98:9f:44:1b:4d:56:d6:5a:86:d8:
         04:51:41:2e:a2:a6:d0:a6:f6:4d:19:57:c1:1e:05:5c:6e:4e:
         cf:15:89:66:bf:ae:38:c4:0e:27:1e:84:7b:e7:69:4e:e3:df:
         8e:66:87:d8:4b:78:94:b9:23:01:b2:7a:7a:4f:90:fe:0c:37:
         86:6f:f0:b5:99:a4:e6:6b:1b:82:8a:5c:ad:15:fc:53:62:11:
         53:49:1e:4c:39:f2:51:2c:a1:fb:26:a3:f9:22:3a:30:c3:91:
         d3:8d:ef:49:91:57:d5:bf:13:8d:9f:c1:cd:b7:15:c7:e7:63:
         37:fa:c4:18:bc:40:79:12:9e:c7:5f:d2:50:81:e7:90:5d:12:
         e9:a4:76:34
-----BEGIN CERTIFICATE-----
MIICkjCCAXoCAhI1MA0GCSqGSIb3DQEBCwUAMA4xDDAKBgNVBAMMA2dvZDAeFw0y
NTEyMjAxNTQzMjlaFw0zNTEyMTgxNTQzMjlaMA8xDTALBgNVBAMMBGRzYTIwggEi
MA0GCSqGSIb3DQEBAQUAA4IBDwAwggEKAoIBAQDoO8A9z+Isa3pbB35FJfBrlW9G
8CU/2kmiJ1Abb+8I6KX7gSIjj+GSq4CFftT5UhGh77ComhQD6VR1+Og+aZ4YFNX7
WWzS0aBvIawXXKmGZ4eREefBtfL9r1vW9YuwPbkOlsr2Vn++K9HWhxowu9/Q4gZJ
YB1i7uFzYpBE3PZpfBNXdtGmmlZeg0G7jALaPmKbhuGOOCYHRj3FuAyhWimt63cz
O8BiAOEB5mb9tek16PpGFSAgMkXew/2UlExGADlFgABg06va1sNrXQkZbrtgeT0U
KeWUnpOZ9SV2DomGY5GVHnszjoJDP7U3RcGmIyp6ugq3EKIcwRIzsur1kR6bAgMB
AAEwDQYJKoZIhvcNAQELBQADggEBABfzOxs9EdmbdHnm9SkkVEHw1twstpOybiN9
jN/G3dQ5xTjTbV+eCZSXpNNoj163EkCm8KOi1NhR4c0vEk6Q2ssI6WCILRkSXtFo
vaY/jbIs67iGeYagXUvMQaxsR6Hhldvqu98eI3fh98aPqSKdTtvaQxK1mJ9EG01W
1lqG2ARRQS6iptCm9k0ZV8EeBVxuTs8ViWa/rjjEDicehHvnaU7j345mh9hLeJS5
IwGyenpPkP4MN4Zv8LWZpOZrG4KKXK0V/FNiEVNJHkw58lEsofsmo/kiOjDDkdON
70mRV9W/E42fwc23FcfnYzf6xBi8QHkSnsdf0lCB55BdEumkdjQ=
-----END CERTIFICATE-----
