Certificate:
    Data:
        Version: 1 (0x0)
        Serial Number: 4662 (0x1236)
        Signature Algorithm: sha256WithRSAEncryption
        Issuer: CN=god
        Validity
            Not Before: Dec 20 15:43:29 2025 GMT
            Not After : Dec 18 15:43:29 2035 GMT
        Subject: CN=dsa3
        Subject Public Key Info:
            Public Key Algorithm: rsaEncryption
                RSA Public-Key: (2048 bit)
                Modulus:
                    00:bc:7c:d0:f5:07:39:be:77:91:05:bd:03:5c:47:
                    b9:b0:6b:40:ae:66:36:6d:e5:79:db:87:06:16:d4:
                    ed:8a:ee:3b:63:7c:d9:7c:b3:cd:18:0b:24:59:3a:
                    8c:c5:68:51:be:6c:04:b4:c7:82:28:bd:07:8c:e4:
                    95:06:0d:5c:92:62:10:b0:8c:c4:a8:5d:5c:c6:c1:
                    08:23:49:61:63:f5:3d:63:15:8d:d1:64:c9:03:97:
                    90:94:88:49:f9:fd:f3:38:1d:fd:3d:47:74:f3:cb:
                    86:99:45:2f:8c:71:87:ad:b4:84:87:9a:10:c8:f0:
                    0b:c9:58:36:6e:c8:76:b3:cb:3e:60:e5:31:cb:06:
                    08:1a:39:24:cb:6c:2c:3e:bc:ed:a6:27:2b:cb:50:
                    18:6c:d2:00:66:b8:fe:86:15:e5:9f:1b:4b:7b:27:
                    c8:a7:29:32:2c:d6:f0:70:fc:f1:dd:35:74:7e:a9:
                    b7:77:cf:ea:ca:97:ba:64:2b:7f:3b:4a:94:44:5c:
                    38:28:76:ba:cf:8c:f5:2b:d9:31:83:d5:53:64:60:
                    79:7f:09:7f:75:be:18:d5:a6:ec:4a:af:01:79:bb:
                    f6:57:24:7b:dd:9d:2c:1d:56:ae:7b:bc:f2:c6:c2:
                    f7:cc:ae:aa:cb:e7:15:4f:0c:17:24:08:4b:57:71:
                    12:c1
                Exponent: 65537 (0x10001)
    Signature Algorithm: sha256WithRSAEncryption
         b5:e0:12:4d:89:ad:77:cd:bd:2d:52:10:eb:dd:ba:b9:78:c1:
         4d:60:3f:e2:84:cf:cd:73:29:f9:d9:c1:c6:56:94:4f:b4:1e:
         37:36:3b:d8:86:16:4f:9e:e8:57:2e:7c:ef:cb:da:cd:b8:0b:
         66:75:6d:7a:69:89:e0:51:15:17:8c:68:37:8f:ef:ba:d8:22:
         ba:21:cc:c0:d7:32:66:7f:2f:17:a2:9b:ac:16:20:88:1a:8d:
         72:fc:7b:12:df:3e:0c:98:ea:a8:59:4b:b7:a2:7d:29:cf:99:
         85:e2:12:07:33:68:de:9c:a4:9e:55:fe:a4:89:ac:31:fe:43:
         db:55:90:54:3b:59:c7:61:0e:65:2e:9f:7f:a9:e4:f0:32:a2:
         96:25:aa:a7:41:b3:4f:db:e8:36:e8:c5:af:5f:db:d8:73:96:
         24:8e:ba:f4:78:4a:6e:d2:9a:ef:b0:fd:df:ed:19:30:84:59:
         25:f6:e1:01:bf:ac:74:76:1d:ed:ff:ce:57:c0:b9:8c:92:17:
         79:ba:30:02:78:7e:d5:0c:ed:94:4b:e6:db:95:43:4c:16:6c:
         d9:f0:80:88:18:2b:d1:33:53:ba:55:78:56:f9:a8:78:9c:7d:
         3b:37:ab:8f:4f:d5:00:79:f1:8d:d1:46:0c:a9:fb:36:e2:11:
         8d:4c:9b:58
-----BEGIN CERTIFICATE-----
MIICkjCCAXoCAhI2MA0GCSqGSIb3DQEBCwUAMA4xDDAKBgNVBAMMA2dvZDAeFw0y
NTEyMjAxNTQzMjlaFw0zNTEyMTgxNTQzMjlaMA8xDTALBgNVBAMMBGRzYTMwggEi
MA0GCSqGSIb3DQEBAQUAA4IBDwAwggEKAoIBAQC8fND1Bzm+d5EFvQNcR7mwa0Cu
ZjZt5XnbhwYW1O2K7jtjfNl8s80YCyRZOozFaFG+bAS0x4IovQeM5JUGDVySYhCw
jMSoXVzGwQgjSWFj9T1jFY3RZMkDl5CUiEn5/fM4Hf09R3Tzy4aZRS+McYettISH
mhDI8AvJWDZuyHazyz5g5THLBggaOSTLbCw+vO2mJyvLUBhs0gBmuP6GFeWfG0t7
J8inKTIs1vBw/PHdNXR+qbd3z+rKl7pkK387SpREXDgodrrPjPUr2TGD1VNkYHl/
CX91vhjVpuxKrwF5u/ZXJHvdnSwdVq57vPLGwvfMrqrL5xVPDBckCEtXcRLBAgMB
AAEwDQYJKoZIhvcNAQELBQADggEBALXgEk2JrXfNvS1SEOvdurl4wU1gP+KEz81z
KfnZwcZWlE+0Hjc2O9iGFk+e6FcufO/L2s24C2Z1bXppieBRFReMaDeP77rYIroh
zMDXMmZ/Lxeim6wWIIgajXL8exLfPgyY6qhZS7eifSnPmYXiEgczaN6cpJ5V/qSJ
rDH+Q9tVkFQ7WcdhDmUun3+p5PAyopYlqqdBs0/b6Dboxa9f29hzliSOuvR4Sm7S
mu+w/d/tGTCEWSX24QG/rHR2He3/zlfAuYySF3m6MAJ4ftUM7ZRL5tuVQ0wWbNnw
gIgYK9EzU7pVeFb5qHicfTs3q49P1QB58Y3RRgyp+zbiEY1Mm1g=
-----END CERTIFICATE-----
