Certificate:
    Data:
        Version: 1 (0x0)
        Serial Number: 4663 (0x1237)
        Signature Algorithm: sha256WithRSAEncryption
        Issuer: CN=god
        Validity
            Not Before: Dec 20 15:43:29 2025 GMT
            Not After : Dec 18 15:43:29 2035 GMT
        Subject: C=CA, CN=Justin Trudeau
        Subject Public Key Info:
            Public Key Algorithm: rsaEncryption
                RSA Public-Key: (2048 bit)
                Modulus:
                    00:dd:d6:12:40:30:0b:90:e7:bc:8a:84:73:15:b1:
                    51:82:7a:1f:91:88:b5:30:fd:9b:16:42:65:08:b5:
                    c6:8e:f0:67:25:bd:13:e1:3f:95:1d:92:78:61:52:
                    da:ee:c5:9a:cd:13:25:9c:de:84:b6:02:7d:ee:d5:
                    11:28:64:fb:49:d7:e6:fb:ed:f5:f5:e1:a2:15:43:
                    97:59:4f:0e:f8:d2:34:7e:b9:b0:a6:f0:ad:4a:e1:
                    ae:a6:ef:d1:ea:a3:24:73:9c:9d:87:28:88:bc:54:
                    cf:ad:9c:fb:1b:48:01:57:53:ad:59:58:f5:bc:f0:
                    46:0f:4c:1c:66:b1:13:64:47:b4:ba:b7:2c:f1:c1:
                    b9:4b:46:ae:b8:c3:7f:0f:cf:fd:cc:68:61:45:ca:
                    51:26:05:2d:34:4d:b0:f8:2e:2a:9d:48:05:cb:d4:
                    0e:d5:2a:41:23:42:55:9a:7e:76:2d:f7:32:62:5d:
                    64:24:dd:2f:a1:0b:ff:7d:7a:8b:34:1a:1d:97:d4:
                    e6:a8:07:da:4c:45:c1:49:6e:ac:8f:6f:02:60:4e:
                    66:67:31:6d:c1:97:bf:7f:2e:74:fc:21:a7:4a:b5:
                    3e:41:a9:eb:73:3d:ac:12:2f:a0:d3:53:c1:fe:a0:
                    52:a0:76:d0:b2:18:d7:98:43:7b:7f:c9:29:41:c1:
                    88:51
                Exponent: 65537 (0x10001)
    Signature Algorithm: sha256WithRSAEncryption
         72:8a:50:3a:40:70:63:e0:ea:66:3d:56:24:91:b4:27:29:45:
         f1:41:66:73:97:eb:da:a0:c9:2a:be:83:11:d5:27:cc:53:53:
         da:6f:a7:c4:9d:d2:87:a6:40:6f:8f:e1:c3:ce:f7:bb:97:9a:
         4b:88:6f:3e:21:68:cb:6a:90:9c:73:79:f7:70:1b:20:39:26:
         2d:10:ad:85:56:8c:c1:59:d2:a6:df:92:c1:6b:c6:14:9c:57:
         ae:e9:e6:19:86:67:bd:d4:9f:b3:9c:36:40:43:c4:9c:b4:8d:
         df:55:04:04:cd:7a:b4:0a:48:15:d9:ff:56:96:25:0c:c1:98:
         fb:26:93:bb:2e:66:12:70:02:6d:49:64:59:e5:ab:0b:b2:69:
         9f:fd:27:57:3e:97:71:63:55:7f:d9:39:4f:18:8a:84:ad:97:
         04:40:9c:56:ef:51:39:26:36:69:fd:2a:fe:d2:62:d7:63:ce:
         30:13:65:49:d4:47:af:d8:6b:f9:47:94:3e:52:c4:cd:79:3d:
         78:53:f8:19:20:9a:d4:36:5a:f9:d3:06:70:51:55:35:39:b9:
         87:f3:96:18:08:a3:35:29:db:65:81:b0:f6:28:c7:2f:56:57:
         1d:5d:ae:33:53:ce:d1:0b:28:29:21:32:90:cd:c0:74:b9:08:
         5d:89:b6:4a
-----BEGIN CERTIFICATE-----
MIICqTCCAZECAhI3MA0GCSqGSIb3DQEBCwUAMA4xDDAKBgNVBAMMA2dvZDAeFw0y
NTEyMjAxNTQzMjlaFw0zNTEyMTgxNTQzMjlaMCYxCzAJBgNVBAYTAkNBMRcwFQYD
VQQDDA5KdXN0aW4gVHJ1ZGVhdTCCASIwDQYJKoZIhvcNAQEBBQADggEPADCCAQoC
ggEBAN3WEkAwC5DnvIqEcxWxUYJ6H5GItTD9mxZCZQi1xo7wZyW9E+E/lR2SeGFS
2u7Fms0TJZzehLYCfe7VEShk+0nX5vvt9fXhohVDl1lPDvjSNH65sKbwrUrhrqbv
0eqjJHOcnYcoiLxUz62c+xtIAVdTrVlY9bzwRg9MHGaxE2RHtLq3LPHBuUtGrrjD
fw/P/cxoYUXKUSYFLTRNsPguKp1IBcvUDtUqQSNCVZp+di33MmJdZCTdL6EL/316
izQaHZfU5qgH2kxFwUlurI9vAmBOZmcxbcGXv38udPwhp0q1PkGp63M9rBIvoNNT
wf6gUqB20LIY15hDe3/JKUHBiFECAwEAATANBgkqhkiG9w0BAQsFAAOCAQEAcopQ
OkBwY+DqZj1WJJG0JylF8UFmc5fr2qDJKr6DEdUnzFNT2m+nxJ3Sh6ZAb4/hw873
u5eaS4hvPiFoy2qQnHN593AbIDkmLRCthVaMwVnSpt+SwWvGFJxXrunmGYZnvdSf
s5w2QEPEnLSN31UEBM16tApIFdn/VpYlDMGY+yaTuy5mEnACbUlkWeWrC7Jpn/0n
Vz6XcWNVf9k5TxiKhK2XBECcVu9ROSY2af0q/tJi12POMBNlSdRHr9hr+UeUPlLE
zXk9eFP4GSCa1DZa+dMGcFFVNTm5h/OWGAijNSnbZYGw9ijHL1ZXHV2uM1PO0Qso
KSEykM3AdLkIXYm2Sg==
-----END CERTIFICATE-----
