Certificate:
    Data:
        Version: 1 (0x0)
        Serial Number: 4669 (0x123d)
        Signature Algorithm: sha256WithRSAEncryption
        Issuer: CN=god
        Validity
            Not Before: Jun 28 10:55:01 2023 GMT
            Not After : Jun 25 10:55:01 2033 GMT
        Subject: CN=dsa1
        Subject Public Key Info:
            Public Key Algorithm: rsaEncryption
                RSA Public-Key: (1024 bit)
                Modulus:
                    00:ec:ab:3f:5a:1f:68:91:3b:57:73:ee:8e:75:97:
                    4c:5a:20:90:8a:e5:6a:92:9d:e6:28:31:3c:8c:bd:
                    03:9f:81:e4:43:09:5a:69:fc:cc:bb:05:a1:fe:06:
                    07:7c:88:cf:f9:e4:a2:c1:49:c0:44:39:3c:ec:88:
                    6c:74:c6:44:c8:f5:e0:87:42:ac:d8:dd:8f:ce:56:
                    74:d9:16:04:74:9e:dc:7e:78:c3:33:a0:6b:cd:f9:
                    36:bd:bc:aa:28:65:06:4b:9b:c7:41:4b:7d:45:dc:
                    54:39:99:0f:a3:ee:16:95:c3:11:02:f2:6c:c9:fa:
                    40:5a:fd:c2:93:d8:24:92:d5
                Exponent: 65537 (0x10001)
    Signature Algorithm: sha256WithRSAEncryption
         d5:49:01:42:40:e2:99:1b:2e:0b:69:cc:60:58:08:6b:63:a4:
         49:c4:c7:fc:f5:09:12:97:ff:47:c5:61:ec:0c:18:73:a9:fa:
         98:ce:21:c7:a5:9f:72:6a:bf:ac:e8:4b:ba:e6:13:66:05:c0:
         1e:d0:cd:34:98:b1:49:b6:b3:7c:70:d6:02:24:19:e4:a0:5c:
         40:a0:04:79:a3:8a:bc:e4:5a:41:f6:66:f3:5b:d4:47:8d:08:
         c2:a1:06:bd:c7:04:61:a4:a5:7a:e8:bb:d2:f9:40:12:fc:0b:
         a0:00:da:98:03:75:5c:b4:c2:4e:77:0f:fb:ab:12:f7:2b:f2:
         e4:6d:36:a5:65:72:35:be:a9:30:59:84:33:21:f5:4e:29:2e:
         d1:50:6c:74:4b:5c:5b:69:82:8b:5a:f4:4a:0b:c8:7b:76:6a:
         ae:84:e1:51:5f:a2:1c:83:e2:5e:e0:88:3e:4e:56:ae:be:7f:
         a3:d4:5b:74:34:29:90:fb:bb:0c:8a:fc:7f:44:b0:f6:15:2a:
         d4:b8:1e:0b:05:71:3e:53:66:15:74:84:d6:46:04:c0:49:16:
         fb:e1:9a:7f:8f:60:6b:63:3a:8a:cc:73:68:ec:d3:e9:51:66:
         44:98:c8:5c:d8:83:85:0c:c9:34:96:7b:95:75:db:72:c6:49:
         f6:3f:d6:3b
-----BEGIN CERTIFICATE-----
MIICDTCB9gICEj0wDQYJKoZIhvcNAQELBQAwDjEMMAoGA1UEAwwDZ29kMB4XDTIz
MDYyODEwNTUwMVoXDTMzMDYyNTEwNTUwMVowDzENMAsGA1UEAwwEZHNhMTCBnzAN
BgkqhkiG9w0BAQEFAAOBjQAwgYkCgYEA7Ks/Wh9okTtXc+6OdZdMWiCQiuVqkp3m
KDE8jL0Dn4HkQwlaafzMuwWh/gYHfIjP+eSiwUnARDk87IhsdMZEyPXgh0Ks2N2P
zlZ02RYEdJ7cfnjDM6Brzfk2vbyqKGUGS5vHQUt9RdxUOZkPo+4WlcMRAvJsyfpA
Wv3Ck9gkktUCAwEAATANBgkqhkiG9w0BAQsFAAOCAQEA1UkBQkDimRsuC2nMYFgI
a2OkScTH/PUJEpf/R8Vh7AwYc6n6mM4hx6Wfcmq/rOhLuuYTZgXAHtDNNJixSbaz
fHDWAiQZ5KBcQKAEeaOKvORaQfZm81vUR40IwqEGvccEYaSleui70vlAEvwLoADa
mAN1XLTCTncP+6sS9yvy5G02pWVyNb6pMFmEMyH1Tiku0VBsdEtcW2mCi1r0SgvI
e3ZqroThUV+iHIPiXuCIPk5Wrr5/o9RbdDQpkPu7DIr8f0Sw9hUq1LgeCwVxPlNm
FXSE1kYEwEkW++Gaf49ga2M6isxzaOzT6VFmRJjIXNiDhQzJNJZ7lXXbcsZJ9j/W
Ow==
-----END CERTIFICATE-----
