Certificate:
    Data:
        Version: 1 (0x0)
        Serial Number: 4670 (0x123e)
        Signature Algorithm: sha256WithRSAEncryption
        Issuer: CN=god
        Validity
            Not Before: Jun 28 10:55:18 2023 GMT
            Not After : Jun 25 10:55:18 2033 GMT
        Subject: CN=dsa2
        Subject Public Key Info:
            Public Key Algorithm: rsaEncryption
                RSA Public-Key: (1024 bit)
                Modulus:
                    00:c4:68:ef:f9:5a:8d:96:ca:8f:6c:bb:97:f3:14:
                    23:20:b2:a9:72:de:db:4a:9d:47:9f:ba:d5:ab:4f:
                    a8:24:6e:7a:dd:1d:19:dd:4d:0d:cb:bf:e6:8b:b7:
                    e4:1d:69:4e:d4:d9:4b:41:84:29:79:19:5c:46:7f:
                    42:ee:e8:e4:84:c2:e7:64:fb:12:34:b9:00:66:ef:
                    5d:4c:ab:04:7d:3d:6a:f5:1e:df:ca:37:da:8d:0d:
                    89:3a:50:72:7c:e4:ff:66:da:bf:24:10:13:47:da:
                    58:10:46:bb:0c:ce:23:77:81:26:f2:62:d6:2f:eb:
                    07:18:01:cb:64:b4:07:a4:19
                Exponent: 65537 (0x10001)
    Signature Algorithm: sha256WithRSAEncryption
         ac:ed:43:25:5d:33:91:26:04:0b:4c:7b:d4:66:02:a0:7c:6c:
         e6:33:02:d9:b3:5a:0a:90:df:b4:2d:8a:b8:54:14:96:54:57:
         7b:a9:c8:2e:02:c4:ab:05:b8:c8:45:de:9a:94:ad:eb:2d:e3:
         e1:6f:73:57:13:26:5e:79:9a:26:06:00:2e:12:39:29:ef:45:
         2f:8d:a2:a9:b8:0c:e9:91:7d:19:f9:ce:20:a3:95:1e:47:0d:
         1a:25:00:7e:30:93:cf:c0:6d:93:26:18:e8:ac:fb:e2:a3:eb:
         5b:07:b8:f8:ce:66:74:84:76:41:e9:2e:76:cd:0d:4a:ef:8a:
         2d:e0:75:ad:bc:01:c6:73:36:3a:97:b3:95:1f:02:88:fa:74:
         4f:f2:b5:1f:ae:92:70:26:18:55:08:bf:fc:d8:47:1d:24:6d:
         c5:5c:62:85:e6:c8:ee:e1:86:b5:8a:bb:6b:25:ce:57:11:da:
         b2:ba:44:4c:a1:ee:fa:e0:7d:f0:46:1c:dc:75:f7:05:5c:8d:
         13:31:9b:77:80:17:78:9e:9b:52:99:86:9f:cf:b7:c9:b9:e4:
         a6:71:1d:c1:9d:81:df:fa:c4:ce:29:db:78:38:23:c4:73:6f:
         c5:a2:52:e2:4e:45:bb:3a:59:03:e0:df:9c:f1:f6:21:57:77:
         b6:e1:36:81
-----BEGIN CERTIFICATE-----
MIICDTCB9gICEj4wDQYJKoZIhvcNAQELBQAwDjEMMAoGA1UEAwwDZ29kMB4XDTIz
MDYyODEwNTUxOFoXDTMzMDYyNTEwNTUxOFowDzENMAsGA1UEAwwEZHNhMjCBnzAN
BgkqhkiG9w0BAQEFAAOBjQAwgYkCgYEAxGjv+VqNlsqPbLuX8xQjILKpct7bSp1H
n7rVq0+oJG563R0Z3U0Ny7/mi7fkHWlO1NlLQYQpeRlcRn9C7ujkhMLnZPsSNLkA
Zu9dTKsEfT1q9R7fyjfajQ2JOlByfOT/Ztq/JBATR9pYEEa7DM4jd4Em8mLWL+sH
GAHLZLQHpBkCAwEAATANBgkqhkiG9w0BAQsFAAOCAQEArO1DJV0zkSYEC0x71GYC
oHxs5jMC2bNaCpDftC2KuFQUllRXe6nILgLEqwW4yEXempSt6y3j4W9zVxMmXnma
JgYALhI5Ke9FL42iqbgM6ZF9GfnOIKOVHkcNGiUAfjCTz8BtkyYY6Kz74qPrWwe4
+M5mdIR2Qekuds0NSu+KLeB1rbwBxnM2OpezlR8CiPp0T/K1H66ScCYYVQi//NhH
HSRtxVxihebI7uGGtYq7ayXOVxHasrpETKHu+uB98EYc3HX3BVyNEzGbd4AXeJ6b
UpmGn8+3ybnkpnEdwZ2B3/rEzinbeDgjxHNvxaJS4k5FuzpZA+DfnPH2IVd3tuE2
gQ==
-----END CERTIFICATE-----
